; Function Attrs: uwtable
define range(i32 -4, 1) i32 @faiss_OPQMatrix_new_with(ptr noundef writeonly captures(none) %0, i32 noundef %1, i32 noundef %2, i32 noundef %3) local_unnamed_addr #5 personality ptr @__gxx_personality_v0 {
  %5 = alloca %"class.std::__exception_ptr::exception_ptr", align 8
  %6 = alloca %"class.std::__exception_ptr::exception_ptr", align 8
  %7 = alloca %"class.std::__exception_ptr::exception_ptr", align 8
  %8 = alloca %"class.std::__exception_ptr::exception_ptr", align 8
  %9 = alloca %"class.std::runtime_error", align 8
  %10 = alloca %"class.std::__exception_ptr::exception_ptr", align 8
  %11 = alloca %"class.std::exception", align 8
  %12 = alloca %"class.std::__exception_ptr::exception_ptr", align 8
  %13 = alloca %"class.faiss::FaissException", align 8
  %14 = invoke noalias noundef nonnull dereferenceable(120) ptr @_Znwm(i64 noundef 120) #23
          to label %15 unwind label %17

15:                                               ; preds = %4
  invoke void @_ZN5faiss9OPQMatrixC1Eiii(ptr noundef nonnull align 8 dereferenceable(120) %14, i32 noundef %1, i32 noundef %2, i32 noundef %3)
          to label %16 unwind label %19

16:                                               ; preds = %15
  store ptr %14, ptr %0, align 8, !tbaa !35
  br label %53

17:                                               ; preds = %4
  %18 = landingpad { ptr, i32 }
          catch ptr @_ZTIN5faiss14FaissExceptionE
          catch ptr @_ZTISt9exception
          catch ptr null
  br label %21

19:                                               ; preds = %15
  %20 = landingpad { ptr, i32 }
          catch ptr @_ZTIN5faiss14FaissExceptionE
          catch ptr @_ZTISt9exception
          catch ptr null
  tail call void @_ZdlPvm(ptr noundef nonnull %14, i64 noundef 120) #22
  br label %21

21:                                               ; preds = %19, %17
  %.pn = phi { ptr, i32 } [ %20, %19 ], [ %18, %17 ]
  %.012 = extractvalue { ptr, i32 } %.pn, 0
  %.013 = extractvalue { ptr, i32 } %.pn, 1
  %22 = tail call i32 @llvm.eh.typeid.for.p0(ptr nonnull @_ZTIN5faiss14FaissExceptionE) #20
  %23 = icmp eq i32 %.013, %22
  br i1 %23, label %24, label %32

24:                                               ; preds = %21
  %25 = tail call ptr @__cxa_begin_catch(ptr %.012) #20
  call void @llvm.lifetime.start.p0(i64 8, ptr nonnull %12) #20
  invoke void @_ZN5faiss14FaissExceptionC2ERKS0_(ptr noundef nonnull align 8 dereferenceable(40) %13, ptr noundef nonnull align 8 dereferenceable(40) %25)
          to label %26 unwind label %51

26:                                               ; preds = %24
  call void @_ZSt18make_exception_ptrIN5faiss14FaissExceptionEENSt15__exception_ptr13exception_ptrET_(ptr dead_on_unwind nonnull writable sret(%"class.std::__exception_ptr::exception_ptr") align 8 %12, ptr noundef nonnull %13) #20
  %.not.i = icmp eq ptr @_ZTH20faiss_last_exception, null
  br i1 %.not.i, label %_ZTW20faiss_last_exception.exit, label %27

27:                                               ; preds = %26
  call void @_ZTH20faiss_last_exception()
  br label %_ZTW20faiss_last_exception.exit

_ZTW20faiss_last_exception.exit:                  ; preds = %26, %27
  %28 = call noundef align 8 ptr @llvm.threadlocal.address.p0(ptr align 8 @faiss_last_exception)
  call void @llvm.lifetime.start.p0(i64 8, ptr nonnull %7) #20
  %29 = load ptr, ptr %12, align 8, !tbaa !15
  store ptr null, ptr %12, align 8, !tbaa !15
  %30 = load ptr, ptr %28, align 8, !tbaa !15
  store ptr %30, ptr %7, align 8, !tbaa !15
  store ptr %29, ptr %28, align 8, !tbaa !15
  %.not.i.i = icmp eq ptr %30, null
  br i1 %.not.i.i, label %_ZNSt15__exception_ptr13exception_ptraSEOS0_.exit.thread, label %_ZNSt15__exception_ptr13exception_ptraSEOS0_.exit

_ZNSt15__exception_ptr13exception_ptraSEOS0_.exit.thread: ; preds = %_ZTW20faiss_last_exception.exit
  call void @llvm.lifetime.end.p0(i64 8, ptr nonnull %7) #20
  br label %_ZNSt15__exception_ptr13exception_ptrD2Ev.exit

_ZNSt15__exception_ptr13exception_ptraSEOS0_.exit: ; preds = %_ZTW20faiss_last_exception.exit
  call void @_ZNSt15__exception_ptr13exception_ptr10_M_releaseEv(ptr noundef nonnull align 8 dereferenceable(8) %7) #20
  %.pr = load ptr, ptr %12, align 8, !tbaa !15
  call void @llvm.lifetime.end.p0(i64 8, ptr nonnull %7) #20
  %.not.i18 = icmp eq ptr %.pr, null
  br i1 %.not.i18, label %_ZNSt15__exception_ptr13exception_ptrD2Ev.exit, label %31

31:                                               ; preds = %_ZNSt15__exception_ptr13exception_ptraSEOS0_.exit
  call void @_ZNSt15__exception_ptr13exception_ptr10_M_releaseEv(ptr noundef nonnull align 8 dereferenceable(8) %12) #20
  br label %_ZNSt15__exception_ptr13exception_ptrD2Ev.exit

_ZNSt15__exception_ptr13exception_ptrD2Ev.exit:   ; preds = %_ZNSt15__exception_ptr13exception_ptraSEOS0_.exit.thread, %_ZNSt15__exception_ptr13exception_ptraSEOS0_.exit, %31
  call void @_ZN5faiss14FaissExceptionD2Ev(ptr noundef nonnull align 8 dereferenceable(40) %13) #20
  call void @llvm.lifetime.end.p0(i64 8, ptr nonnull %12) #20
  call void @__cxa_end_catch()
  br label %53

32:                                               ; preds = %21
  %33 = tail call i32 @llvm.eh.typeid.for.p0(ptr nonnull @_ZTISt9exception) #20
  %34 = icmp eq i32 %.013, %33
  %35 = tail call ptr @__cxa_begin_catch(ptr %.012) #20
  br i1 %34, label %36, label %42

36:                                               ; preds = %32
  call void @llvm.lifetime.start.p0(i64 8, ptr nonnull %10) #20
  store ptr getelementptr inbounds nuw inrange(-16, 24) (i8, ptr @_ZTVSt9exception, i64 16), ptr %11, align 8, !tbaa !3
  call void @_ZSt18make_exception_ptrISt9exceptionENSt15__exception_ptr13exception_ptrET_(ptr dead_on_unwind nonnull writable sret(%"class.std::__exception_ptr::exception_ptr") align 8 %10, ptr noundef nonnull %11) #20
  %.not.i19 = icmp eq ptr @_ZTH20faiss_last_exception, null
  br i1 %.not.i19, label %_ZTW20faiss_last_exception.exit20, label %37

37:                                               ; preds = %36
  call void @_ZTH20faiss_last_exception()
  br label %_ZTW20faiss_last_exception.exit20

_ZTW20faiss_last_exception.exit20:                ; preds = %36, %37
  %38 = call noundef align 8 ptr @llvm.threadlocal.address.p0(ptr align 8 @faiss_last_exception)
  call void @llvm.lifetime.start.p0(i64 8, ptr nonnull %6) #20
  %39 = load ptr, ptr %10, align 8, !tbaa !15
  store ptr null, ptr %10, align 8, !tbaa !15
  %40 = load ptr, ptr %38, align 8, !tbaa !15
  store ptr %40, ptr %6, align 8, !tbaa !15
  store ptr %39, ptr %38, align 8, !tbaa !15
  %.not.i.i21 = icmp eq ptr %40, null
  br i1 %.not.i.i21, label %_ZNSt15__exception_ptr13exception_ptraSEOS0_.exit22.thread, label %_ZNSt15__exception_ptr13exception_ptraSEOS0_.exit22

_ZNSt15__exception_ptr13exception_ptraSEOS0_.exit22.thread: ; preds = %_ZTW20faiss_last_exception.exit20
  call void @llvm.lifetime.end.p0(i64 8, ptr nonnull %6) #20
  br label %_ZNSt15__exception_ptr13exception_ptrD2Ev.exit24

_ZNSt15__exception_ptr13exception_ptraSEOS0_.exit22: ; preds = %_ZTW20faiss_last_exception.exit20
  call void @_ZNSt15__exception_ptr13exception_ptr10_M_releaseEv(ptr noundef nonnull align 8 dereferenceable(8) %6) #20
  %.pr32 = load ptr, ptr %10, align 8, !tbaa !15
  call void @llvm.lifetime.end.p0(i64 8, ptr nonnull %6) #20
  %.not.i23 = icmp eq ptr %.pr32, null
  br i1 %.not.i23, label %_ZNSt15__exception_ptr13exception_ptrD2Ev.exit24, label %41

41:                                               ; preds = %_ZNSt15__exception_ptr13exception_ptraSEOS0_.exit22
  call void @_ZNSt15__exception_ptr13exception_ptr10_M_releaseEv(ptr noundef nonnull align 8 dereferenceable(8) %10) #20
  br label %_ZNSt15__exception_ptr13exception_ptrD2Ev.exit24

_ZNSt15__exception_ptr13exception_ptrD2Ev.exit24: ; preds = %_ZNSt15__exception_ptr13exception_ptraSEOS0_.exit22.thread, %_ZNSt15__exception_ptr13exception_ptraSEOS0_.exit22, %41
  call void @_ZNSt9exceptionD1Ev(ptr noundef nonnull align 8 dereferenceable(8) %11) #20
  call void @llvm.lifetime.end.p0(i64 8, ptr nonnull %10) #20
  call void @__cxa_end_catch()
  br label %53

42:                                               ; preds = %32
  call void @llvm.lifetime.start.p0(i64 8, ptr nonnull %8) #20
  invoke void @_ZNSt13runtime_errorC1EPKc(ptr noundef nonnull align 8 dereferenceable(16) %9, ptr noundef nonnull @.str)
          to label %43 unwind label %49

43:                                               ; preds = %42
  call void @_ZSt18make_exception_ptrISt13runtime_errorENSt15__exception_ptr13exception_ptrET_(ptr dead_on_unwind nonnull writable sret(%"class.std::__exception_ptr::exception_ptr") align 8 %8, ptr noundef nonnull %9) #20
  %.not.i25 = icmp eq ptr @_ZTH20faiss_last_exception, null
  br i1 %.not.i25, label %_ZTW20faiss_last_exception.exit26, label %44

44:                                               ; preds = %43
  call void @_ZTH20faiss_last_exception()
  br label %_ZTW20faiss_last_exception.exit26

_ZTW20faiss_last_exception.exit26:                ; preds = %43, %44
  %45 = call noundef align 8 ptr @llvm.threadlocal.address.p0(ptr align 8 @faiss_last_exception)
  call void @llvm.lifetime.start.p0(i64 8, ptr nonnull %5) #20
  %46 = load ptr, ptr %8, align 8, !tbaa !15
  store ptr null, ptr %8, align 8, !tbaa !15
  %47 = load ptr, ptr %45, align 8, !tbaa !15
  store ptr %47, ptr %5, align 8, !tbaa !15
  store ptr %46, ptr %45, align 8, !tbaa !15
  %.not.i.i27 = icmp eq ptr %47, null
  br i1 %.not.i.i27, label %_ZNSt15__exception_ptr13exception_ptraSEOS0_.exit28.thread, label %_ZNSt15__exception_ptr13exception_ptraSEOS0_.exit28

_ZNSt15__exception_ptr13exception_ptraSEOS0_.exit28.thread: ; preds = %_ZTW20faiss_last_exception.exit26
  call void @llvm.lifetime.end.p0(i64 8, ptr nonnull %5) #20
  br label %_ZNSt15__exception_ptr13exception_ptrD2Ev.exit30

_ZNSt15__exception_ptr13exception_ptraSEOS0_.exit28: ; preds = %_ZTW20faiss_last_exception.exit26
  call void @_ZNSt15__exception_ptr13exception_ptr10_M_releaseEv(ptr noundef nonnull align 8 dereferenceable(8) %5) #20
  %.pr34 = load ptr, ptr %8, align 8, !tbaa !15
  call void @llvm.lifetime.end.p0(i64 8, ptr nonnull %5) #20
  %.not.i29 = icmp eq ptr %.pr34, null
  br i1 %.not.i29, label %_ZNSt15__exception_ptr13exception_ptrD2Ev.exit30, label %48

48:                                               ; preds = %_ZNSt15__exception_ptr13exception_ptraSEOS0_.exit28
  call void @_ZNSt15__exception_ptr13exception_ptr10_M_releaseEv(ptr noundef nonnull align 8 dereferenceable(8) %8) #20
  br label %_ZNSt15__exception_ptr13exception_ptrD2Ev.exit30

_ZNSt15__exception_ptr13exception_ptrD2Ev.exit30: ; preds = %_ZNSt15__exception_ptr13exception_ptraSEOS0_.exit28.thread, %_ZNSt15__exception_ptr13exception_ptraSEOS0_.exit28, %48
  call void @_ZNSt13runtime_errorD1Ev(ptr noundef nonnull align 8 dereferenceable(16) %9) #20
  call void @llvm.lifetime.end.p0(i64 8, ptr nonnull %8) #20
  call void @__cxa_end_catch()
  br label %53

49:                                               ; preds = %42
  %50 = landingpad { ptr, i32 }
          cleanup
  call void @llvm.lifetime.end.p0(i64 8, ptr nonnull %8) #20
  invoke void @__cxa_end_catch()
          to label %54 unwind label %55

51:                                               ; preds = %24
  %52 = landingpad { ptr, i32 }
          cleanup
  call void @llvm.lifetime.end.p0(i64 8, ptr nonnull %12) #20
  invoke void @__cxa_end_catch()
          to label %54 unwind label %55

53:                                               ; preds = %16, %_ZNSt15__exception_ptr13exception_ptrD2Ev.exit30, %_ZNSt15__exception_ptr13exception_ptrD2Ev.exit24, %_ZNSt15__exception_ptr13exception_ptrD2Ev.exit
  %.0 = phi i32 [ 0, %16 ], [ -2, %_ZNSt15__exception_ptr13exception_ptrD2Ev.exit ], [ -4, %_ZNSt15__exception_ptr13exception_ptrD2Ev.exit24 ], [ -1, %_ZNSt15__exception_ptr13exception_ptrD2Ev.exit30 ]
  ret i32 %.0

54:                                               ; preds = %51, %49
  %.pn16 = phi { ptr, i32 } [ %50, %49 ], [ %52, %51 ]
  resume { ptr, i32 } %.pn16

55:                                               ; preds = %51, %49
  %56 = landingpad { ptr, i32 }
          catch ptr null
  %57 = extractvalue { ptr, i32 } %56, 0
  call void @__clang_call_terminate(ptr %57) #21
  unreachable
}